ccopy_reg
_reconstructor
p0
(cpandas.core.frame
DataFrame
p1
c__builtin__
object
p2
Ntp3
Rp4
g0
(cpandas.core.internals
BlockManager
p5
g2
Ntp6
Rp7
((lp8
cpandas.core.index
_new_Index
p9
(cpandas.core.index
Index
p10
(dp11
S'data'
p12
cnumpy.core.multiarray
_reconstruct
p13
(cnumpy
ndarray
p14
(I0
tp15
S'b'
p16
tp17
Rp18
(I1
(I7
tp19
cnumpy
dtype
p20
(S'O8'
p21
I0
I1
tp22
Rp23
(I3
S'|'
p24
NNNI-1
I-1
I63
tp25
bI00
(lp26
S'feature_name'
p27
aS'left_attribute'
p28
aS'right_attribute'
p29
aS'left_attr_tokenizer'
p30
aS'right_attr_tokenizer'
p31
aS'simfunction'
p32
aS'function_source'
p33
atp34
bsS'name'
p35
Nstp36
Rp37
ag9
(cpandas.core.index
Int64Index
p38
(dp39
g12
g13
(g14
(I0
tp40
g16
tp41
Rp42
(I1
(I22
tp43
g20
(S'i8'
p44
I0
I1
tp45
Rp46
(I3
S'<'
p47
NNNI-1
I-1
I0
tp48
bI00
S'\x00\x00\x00\x00\x00\x00\x00\x00\x01\x00\x00\x00\x00\x00\x00\x00\x02\x00\x00\x00\x00\x00\x00\x00\x03\x00\x00\x00\x00\x00\x00\x00\x04\x00\x00\x00\x00\x00\x00\x00\x05\x00\x00\x00\x00\x00\x00\x00\x06\x00\x00\x00\x00\x00\x00\x00\x07\x00\x00\x00\x00\x00\x00\x00\x08\x00\x00\x00\x00\x00\x00\x00\t\x00\x00\x00\x00\x00\x00\x00\n\x00\x00\x00\x00\x00\x00\x00\x0b\x00\x00\x00\x00\x00\x00\x00\x0c\x00\x00\x00\x00\x00\x00\x00\r\x00\x00\x00\x00\x00\x00\x00\x0e\x00\x00\x00\x00\x00\x00\x00\x0f\x00\x00\x00\x00\x00\x00\x00\x10\x00\x00\x00\x00\x00\x00\x00\x11\x00\x00\x00\x00\x00\x00\x00\x12\x00\x00\x00\x00\x00\x00\x00\x13\x00\x00\x00\x00\x00\x00\x00\x14\x00\x00\x00\x00\x00\x00\x00\x15\x00\x00\x00\x00\x00\x00\x00'
p49
tp50
bsg35
Nstp51
Rp52
a(lp53
g13
(g14
(I0
tp54
g16
tp55
Rp56
(I1
(I7
I22
tp57
g23
I00
(lp58
S'ID_ID_lev'
p59
aS'ID_ID_jar'
p60
aS'ID_ID_jwn'
p61
aS'ID_ID_sdx'
p62
aS'ID_ID_exm'
p63
aS'ID_ID_jac_qgm_3_qgm_3'
p64
aS'name_name_jac_qgm_3_qgm_3'
p65
aS'name_name_cos_dlm_dc0_dlm_dc0'
p66
aS'name_name_jac_dlm_dc0_dlm_dc0'
p67
aS'name_name_mel'
p68
aS'name_name_nmw'
p69
aS'name_name_sw'
p70
aS'name_name_swg'
p71
aS'birth_year_birth_year_exm'
p72
aS'birth_year_birth_year_anm'
p73
aS'birth_year_birth_year_lev'
p74
aS'hourly_wage_hourly_wage_exm'
p75
aS'hourly_wage_hourly_wage_anm'
p76
aS'hourly_wage_hourly_wage_lev'
p77
aS'zipcode_zipcode_exm'
p78
aS'zipcode_zipcode_anm'
p79
aS'zipcode_zipcode_lev'
p80
aS'ID'
p81
ag81
ag81
ag81
ag81
ag81
aS'name'
p82
ag82
ag82
ag82
ag82
ag82
ag82
aS'birth_year'
p83
ag83
ag83
aS'hourly_wage'
p84
ag84
ag84
aS'zipcode'
p85
ag85
ag85
ag81
ag81
ag81
ag81
ag81
ag81
ag82
ag82
ag82
ag82
ag82
ag82
ag82
ag83
ag83
ag83
ag84
ag84
ag84
ag85
ag85
ag85
aNaNaNaNaNaS'qgm_3'
p86
ag86
aS'dlm_dc0'
p87
ag87
aNaNaNaNaNaNaNaNaNaNaNaNaNaNaNaNaNaNag86
ag86
ag87
ag87
aNaNaNaNaNaNaNaNaNaNaNaNaNaS'lev'
p88
aS'jaro'
p89
aS'jaro_winkler'
p90
aS'soundex'
p91
aS'exact_match'
p92
aS'jaccard'
p93
ag93
aS'cosine'
p94
ag93
aS'monge_elkan'
p95
aS'needleman_wunsch'
p96
aS'smith_waterman'
p97
aS'smith_waterman_gotoh'
p98
ag92
aS'abs_norm'
p99
ag88
ag92
ag99
ag88
ag92
ag99
ag88
aS'from magellan.feature.simfunctions import *\nfrom magellan.feature.tokenizers import *\ndef ID_ID_lev(ltuple, rtuple):\n    return lev(ltuple["ID"], rtuple["ID"])'
p100
aS'from magellan.feature.simfunctions import *\nfrom magellan.feature.tokenizers import *\ndef ID_ID_jar(ltuple, rtuple):\n    return jaro(ltuple["ID"], rtuple["ID"])'
p101
aS'from magellan.feature.simfunctions import *\nfrom magellan.feature.tokenizers import *\ndef ID_ID_jwn(ltuple, rtuple):\n    return jaro_winkler(ltuple["ID"], rtuple["ID"])'
p102
aS'from magellan.feature.simfunctions import *\nfrom magellan.feature.tokenizers import *\ndef ID_ID_sdx(ltuple, rtuple):\n    return soundex(ltuple["ID"], rtuple["ID"])'
p103
aS'from magellan.feature.simfunctions import *\nfrom magellan.feature.tokenizers import *\ndef ID_ID_exm(ltuple, rtuple):\n    return exact_match(ltuple["ID"], rtuple["ID"])'
p104
aS'from magellan.feature.simfunctions import *\nfrom magellan.feature.tokenizers import *\ndef ID_ID_jac_qgm_3_qgm_3(ltuple, rtuple):\n    return jaccard(qgm_3(ltuple["ID"]), qgm_3(rtuple["ID"])) '
p105
aS'from magellan.feature.simfunctions import *\nfrom magellan.feature.tokenizers import *\ndef name_name_jac_qgm_3_qgm_3(ltuple, rtuple):\n    return jaccard(qgm_3(ltuple["name"]), qgm_3(rtuple["name"])) '
p106
aS'from magellan.feature.simfunctions import *\nfrom magellan.feature.tokenizers import *\ndef name_name_cos_dlm_dc0_dlm_dc0(ltuple, rtuple):\n    return cosine(dlm_dc0(ltuple["name"]), dlm_dc0(rtuple["name"])) '
p107
aS'from magellan.feature.simfunctions import *\nfrom magellan.feature.tokenizers import *\ndef name_name_jac_dlm_dc0_dlm_dc0(ltuple, rtuple):\n    return jaccard(dlm_dc0(ltuple["name"]), dlm_dc0(rtuple["name"])) '
p108
aS'from magellan.feature.simfunctions import *\nfrom magellan.feature.tokenizers import *\ndef name_name_mel(ltuple, rtuple):\n    return monge_elkan(ltuple["name"], rtuple["name"])'
p109
aS'from magellan.feature.simfunctions import *\nfrom magellan.feature.tokenizers import *\ndef name_name_nmw(ltuple, rtuple):\n    return needleman_wunsch(ltuple["name"], rtuple["name"])'
p110
aS'from magellan.feature.simfunctions import *\nfrom magellan.feature.tokenizers import *\ndef name_name_sw(ltuple, rtuple):\n    return smith_waterman(ltuple["name"], rtuple["name"])'
p111
aS'from magellan.feature.simfunctions import *\nfrom magellan.feature.tokenizers import *\ndef name_name_swg(ltuple, rtuple):\n    return smith_waterman_gotoh(ltuple["name"], rtuple["name"])'
p112
aS'from magellan.feature.simfunctions import *\nfrom magellan.feature.tokenizers import *\ndef birth_year_birth_year_exm(ltuple, rtuple):\n    return exact_match(ltuple["birth_year"], rtuple["birth_year"])'
p113
aS'from magellan.feature.simfunctions import *\nfrom magellan.feature.tokenizers import *\ndef birth_year_birth_year_anm(ltuple, rtuple):\n    return abs_norm(ltuple["birth_year"], rtuple["birth_year"])'
p114
aS'from magellan.feature.simfunctions import *\nfrom magellan.feature.tokenizers import *\ndef birth_year_birth_year_lev(ltuple, rtuple):\n    return lev(ltuple["birth_year"], rtuple["birth_year"])'
p115
aS'from magellan.feature.simfunctions import *\nfrom magellan.feature.tokenizers import *\ndef hourly_wage_hourly_wage_exm(ltuple, rtuple):\n    return exact_match(ltuple["hourly_wage"], rtuple["hourly_wage"])'
p116
aS'from magellan.feature.simfunctions import *\nfrom magellan.feature.tokenizers import *\ndef hourly_wage_hourly_wage_anm(ltuple, rtuple):\n    return abs_norm(ltuple["hourly_wage"], rtuple["hourly_wage"])'
p117
aS'from magellan.feature.simfunctions import *\nfrom magellan.feature.tokenizers import *\ndef hourly_wage_hourly_wage_lev(ltuple, rtuple):\n    return lev(ltuple["hourly_wage"], rtuple["hourly_wage"])'
p118
aS'from magellan.feature.simfunctions import *\nfrom magellan.feature.tokenizers import *\ndef zipcode_zipcode_exm(ltuple, rtuple):\n    return exact_match(ltuple["zipcode"], rtuple["zipcode"])'
p119
aS'from magellan.feature.simfunctions import *\nfrom magellan.feature.tokenizers import *\ndef zipcode_zipcode_anm(ltuple, rtuple):\n    return abs_norm(ltuple["zipcode"], rtuple["zipcode"])'
p120
aS'from magellan.feature.simfunctions import *\nfrom magellan.feature.tokenizers import *\ndef zipcode_zipcode_lev(ltuple, rtuple):\n    return lev(ltuple["zipcode"], rtuple["zipcode"])'
p121
atp122
ba(lp123
g9
(g10
(dp124
g12
g13
(g14
(I0
tp125
g16
tp126
Rp127
(I1
(I7
tp128
g23
I00
(lp129
g27
ag28
ag29
ag30
ag31
ag32
ag33
atp130
bsg35
Nstp131
Rp132
a(dp133
S'0.14.1'
p134
(dp135
S'axes'
p136
g8
sS'blocks'
p137
(lp138
(dp139
S'mgr_locs'
p140
c__builtin__
slice
p141
(I0
I7
I1
tp142
Rp143
sS'values'
p144
g56
sasstp145
bb.